target datalayout = "e-m:e-p270:32:32-p271:32:32-p272:64:64-i64:64-i128:128-f80:128-n8:16:32:64-S128"
target triple = "x86_64-unknown-linux-gnu"

%"class.QuantLib::FdmLinearOp" = type { ptr }
%"class.std::unique_ptr" = type { %"struct.std::__uniq_ptr_data" }
%"struct.std::__uniq_ptr_data" = type { %"class.std::__uniq_ptr_impl" }
%"class.std::__uniq_ptr_impl" = type { %"class.std::tuple" }
%"class.std::tuple" = type { %"struct.std::_Tuple_impl" }
%"struct.std::_Tuple_impl" = type { %"struct.std::_Head_base.1" }
%"struct.std::_Head_base.1" = type { ptr }
%"class.boost::detail::shared_count" = type { ptr }
%"class.QuantLib::Array" = type { %"class.std::unique_ptr", i64 }
%"class.QuantLib::FdmSquareRootFwdOp" = type { %"class.QuantLib::FdmLinearOpComposite", i64, double, double, double, i32, %"class.boost::shared_ptr", %"class.QuantLib::Array" }
%"class.QuantLib::FdmLinearOpComposite" = type { %"class.QuantLib::FdmLinearOp" }
%"class.boost::shared_ptr" = type { ptr, %"class.boost::detail::shared_count" }

; Function Attrs: mustprogress uwtable
define noundef double @_ZNK8QuantLib18FdmSquareRootFwdOp2muEm(ptr noundef nonnull align 8 dereferenceable(80) %this, i64 noundef %i) #4 align 2 {
entry:
  %this.addr = alloca ptr, align 8
  %i.addr = alloca i64, align 8
  store ptr %this, ptr %this.addr, align 8, !tbaa !3
  store i64 %i, ptr %i.addr, align 8, !tbaa !9
  %this1 = load ptr, ptr %this.addr, align 8
  %kappa_ = getelementptr inbounds nuw %"class.QuantLib::FdmSquareRootFwdOp", ptr %this1, i32 0, i32 2
  %0 = load double, ptr %kappa_, align 8, !tbaa !28
  %1 = load i64, ptr %i.addr, align 8, !tbaa !9
  %call = call noundef double @_ZNK8QuantLib18FdmSquareRootFwdOp1vEm(ptr noundef nonnull align 8 dereferenceable(80) %this1, i64 noundef %1)
  %theta_ = getelementptr inbounds nuw %"class.QuantLib::FdmSquareRootFwdOp", ptr %this1, i32 0, i32 3
  %2 = load double, ptr %theta_, align 8, !tbaa !29
  %sub = fsub double %call, %2
  %sigma_ = getelementptr inbounds nuw %"class.QuantLib::FdmSquareRootFwdOp", ptr %this1, i32 0, i32 4
  %3 = load double, ptr %sigma_, align 8, !tbaa !30
  %sigma_2 = getelementptr inbounds nuw %"class.QuantLib::FdmSquareRootFwdOp", ptr %this1, i32 0, i32 4
  %4 = load double, ptr %sigma_2, align 8, !tbaa !30
  %mul3 = fmul double %3, %4
  %5 = call double @llvm.fmuladd.f64(double %0, double %sub, double %mul3)
  ret double %5
}

; Function Attrs: mustprogress uwtable
define noundef double @_ZNK8QuantLib18FdmSquareRootFwdOp5zetapEm(ptr noundef nonnull align 8 dereferenceable(80) %this, i64 noundef %i) #4 align 2 {
entry:
  %this.addr = alloca ptr, align 8
  %i.addr = alloca i64, align 8
  store ptr %this, ptr %this.addr, align 8, !tbaa !3
  store i64 %i, ptr %i.addr, align 8, !tbaa !9
  %this1 = load ptr, ptr %this.addr, align 8
  %0 = load i64, ptr %i.addr, align 8, !tbaa !9
  %call = call noundef double @_ZNK8QuantLib18FdmSquareRootFwdOp1hEm(ptr noundef nonnull align 8 dereferenceable(80) %this1, i64 noundef %0)
  %1 = load i64, ptr %i.addr, align 8, !tbaa !9
  %sub = sub i64 %1, 1
  %call2 = call noundef double @_ZNK8QuantLib18FdmSquareRootFwdOp1hEm(ptr noundef nonnull align 8 dereferenceable(80) %this1, i64 noundef %sub)
  %2 = load i64, ptr %i.addr, align 8, !tbaa !9
  %call3 = call noundef double @_ZNK8QuantLib18FdmSquareRootFwdOp1hEm(ptr noundef nonnull align 8 dereferenceable(80) %this1, i64 noundef %2)
  %add = fadd double %call2, %call3
  %mul = fmul double %call, %add
  ret double %mul
}

; Function Attrs: mustprogress uwtable
define noundef double @_ZNK8QuantLib18FdmSquareRootFwdOp1hEm(ptr noundef nonnull align 8 dereferenceable(80) %this, i64 noundef %i) #4 align 2 {
entry:
  %this.addr = alloca ptr, align 8
  %i.addr = alloca i64, align 8
  store ptr %this, ptr %this.addr, align 8, !tbaa !3
  store i64 %i, ptr %i.addr, align 8, !tbaa !9
  %this1 = load ptr, ptr %this.addr, align 8
  %0 = load i64, ptr %i.addr, align 8, !tbaa !9
  %add = add i64 %0, 1
  %call = call noundef double @_ZNK8QuantLib18FdmSquareRootFwdOp1vEm(ptr noundef nonnull align 8 dereferenceable(80) %this1, i64 noundef %add)
  %1 = load i64, ptr %i.addr, align 8, !tbaa !9
  %call2 = call noundef double @_ZNK8QuantLib18FdmSquareRootFwdOp1vEm(ptr noundef nonnull align 8 dereferenceable(80) %this1, i64 noundef %1)
  %sub = fsub double %call, %call2
  ret double %sub
}

; Function Attrs: inlinehint mustprogress nounwind uwtable
define linkonce_odr noundef i64 @_ZNK8QuantLib5Array4sizeEv(ptr noundef nonnull align 8 dereferenceable(16) %this) #5 comdat align 2 {
entry:
  %this.addr = alloca ptr, align 8
  store ptr %this, ptr %this.addr, align 8, !tbaa !3
  %this1 = load ptr, ptr %this.addr, align 8
  %n_ = getelementptr inbounds nuw %"class.QuantLib::Array", ptr %this1, i32 0, i32 1
  %0 = load i64, ptr %n_, align 8, !tbaa !48
  ret i64 %0
}

; Function Attrs: mustprogress uwtable
define noundef double @_ZNK8QuantLib18FdmSquareRootFwdOp7f1PlainEv(ptr noundef nonnull align 8 dereferenceable(80) %this) #4 align 2 {
entry:
  %this.addr = alloca ptr, align 8
  %n = alloca i64, align 8
  %a = alloca double, align 8
  %gamma = alloca double, align 8
  %nu = alloca double, align 8
  store ptr %this, ptr %this.addr, align 8, !tbaa !3
  %this1 = load ptr, ptr %this.addr, align 8
  call void @llvm.lifetime.start.p0(i64 8, ptr %n) #3
  %v_ = getelementptr inbounds nuw %"class.QuantLib::FdmSquareRootFwdOp", ptr %this1, i32 0, i32 7
  %call = call noundef i64 @_ZNK8QuantLib5Array4sizeEv(ptr noundef nonnull align 8 dereferenceable(16) %v_)
  store i64 %call, ptr %n, align 8, !tbaa !9
  call void @llvm.lifetime.start.p0(i64 8, ptr %a) #3
  %0 = load i64, ptr %n, align 8, !tbaa !9
  %call2 = call noundef double @_ZNK8QuantLib18FdmSquareRootFwdOp1hEm(ptr noundef nonnull align 8 dereferenceable(80) %this1, i64 noundef %0)
  %1 = load i64, ptr %n, align 8, !tbaa !9
  %sub = sub i64 %1, 1
  %call3 = call noundef double @_ZNK8QuantLib18FdmSquareRootFwdOp1hEm(ptr noundef nonnull align 8 dereferenceable(80) %this1, i64 noundef %sub)
  %2 = call double @llvm.fmuladd.f64(double 2.000000e+00, double %call2, double %call3)
  %3 = load i64, ptr %n, align 8, !tbaa !9
  %call4 = call noundef double @_ZNK8QuantLib18FdmSquareRootFwdOp5zetapEm(ptr noundef nonnull align 8 dereferenceable(80) %this1, i64 noundef %3)
  %div = fdiv double %2, %call4
  store double %div, ptr %a, align 8, !tbaa !7
  call void @llvm.lifetime.start.p0(i64 8, ptr %gamma) #3
  %sigma_ = getelementptr inbounds nuw %"class.QuantLib::FdmSquareRootFwdOp", ptr %this1, i32 0, i32 4
  %4 = load double, ptr %sigma_, align 8, !tbaa !30
  %sigma_5 = getelementptr inbounds nuw %"class.QuantLib::FdmSquareRootFwdOp", ptr %this1, i32 0, i32 4
  %5 = load double, ptr %sigma_5, align 8, !tbaa !30
  %mul = fmul double %4, %5
  %6 = load i64, ptr %n, align 8, !tbaa !9
  %call6 = call noundef double @_ZNK8QuantLib18FdmSquareRootFwdOp1vEm(ptr noundef nonnull align 8 dereferenceable(80) %this1, i64 noundef %6)
  %mul7 = fmul double %mul, %call6
  %7 = load i64, ptr %n, align 8, !tbaa !9
  %call8 = call noundef double @_ZNK8QuantLib18FdmSquareRootFwdOp5zetapEm(ptr noundef nonnull align 8 dereferenceable(80) %this1, i64 noundef %7)
  %div9 = fdiv double %mul7, %call8
  %8 = load i64, ptr %n, align 8, !tbaa !9
  %call10 = call noundef double @_ZNK8QuantLib18FdmSquareRootFwdOp2muEm(ptr noundef nonnull align 8 dereferenceable(80) %this1, i64 noundef %8)
  %9 = load i64, ptr %n, align 8, !tbaa !9
  %sub11 = sub i64 %9, 1
  %call12 = call noundef double @_ZNK8QuantLib18FdmSquareRootFwdOp1hEm(ptr noundef nonnull align 8 dereferenceable(80) %this1, i64 noundef %sub11)
  %mul13 = fmul double %call10, %call12
  %10 = load i64, ptr %n, align 8, !tbaa !9
  %call14 = call noundef double @_ZNK8QuantLib18FdmSquareRootFwdOp5zetapEm(ptr noundef nonnull align 8 dereferenceable(80) %this1, i64 noundef %10)
  %div15 = fdiv double %mul13, %call14
  %add = fadd double %div9, %div15
  store double %add, ptr %gamma, align 8, !tbaa !7
  call void @llvm.lifetime.start.p0(i64 8, ptr %nu) #3
  %11 = load double, ptr %a, align 8, !tbaa !7
  %12 = load i64, ptr %n, align 8, !tbaa !9
  %add16 = add i64 %12, 1
  %call17 = call noundef double @_ZNK8QuantLib18FdmSquareRootFwdOp1vEm(ptr noundef nonnull align 8 dereferenceable(80) %this1, i64 noundef %add16)
  %kappa_ = getelementptr inbounds nuw %"class.QuantLib::FdmSquareRootFwdOp", ptr %this1, i32 0, i32 2
  %13 = load double, ptr %kappa_, align 8, !tbaa !28
  %mul19 = fmul double 2.000000e+00, %13
  %14 = load i64, ptr %n, align 8, !tbaa !9
  %add20 = add i64 %14, 1
  %call21 = call noundef double @_ZNK8QuantLib18FdmSquareRootFwdOp1vEm(ptr noundef nonnull align 8 dereferenceable(80) %this1, i64 noundef %add20)
  %theta_ = getelementptr inbounds nuw %"class.QuantLib::FdmSquareRootFwdOp", ptr %this1, i32 0, i32 3
  %15 = load double, ptr %theta_, align 8, !tbaa !29
  %sub22 = fsub double %call21, %15
  %sigma_24 = getelementptr inbounds nuw %"class.QuantLib::FdmSquareRootFwdOp", ptr %this1, i32 0, i32 4
  %16 = load double, ptr %sigma_24, align 8, !tbaa !30
  %sigma_25 = getelementptr inbounds nuw %"class.QuantLib::FdmSquareRootFwdOp", ptr %this1, i32 0, i32 4
  %17 = load double, ptr %sigma_25, align 8, !tbaa !30
  %mul26 = fmul double %16, %17
  %18 = call double @llvm.fmuladd.f64(double %mul19, double %sub22, double %mul26)
  %sigma_27 = getelementptr inbounds nuw %"class.QuantLib::FdmSquareRootFwdOp", ptr %this1, i32 0, i32 4
  %19 = load double, ptr %sigma_27, align 8, !tbaa !30
  %sigma_28 = getelementptr inbounds nuw %"class.QuantLib::FdmSquareRootFwdOp", ptr %this1, i32 0, i32 4
  %20 = load double, ptr %sigma_28, align 8, !tbaa !30
  %mul29 = fmul double %19, %20
  %div30 = fdiv double %18, %mul29
  %21 = call double @llvm.fmuladd.f64(double %11, double %call17, double %div30)
  store double %21, ptr %nu, align 8, !tbaa !7
  %22 = load double, ptr %gamma, align 8, !tbaa !7
  %23 = load double, ptr %nu, align 8, !tbaa !7
  %div31 = fdiv double %22, %23
  %24 = load i64, ptr %n, align 8, !tbaa !9
  %add32 = add i64 %24, 1
  %call33 = call noundef double @_ZNK8QuantLib18FdmSquareRootFwdOp1vEm(ptr noundef nonnull align 8 dereferenceable(80) %this1, i64 noundef %add32)
  %mul34 = fmul double %div31, %call33
  call void @llvm.lifetime.end.p0(i64 8, ptr %nu) #3
  call void @llvm.lifetime.end.p0(i64 8, ptr %gamma) #3
  call void @llvm.lifetime.end.p0(i64 8, ptr %a) #3
  call void @llvm.lifetime.end.p0(i64 8, ptr %n) #3
  ret double %mul34
}