; Function Attrs: mustprogress uwtable
define noundef double @_ZNK8QuantLib18FdmSquareRootFwdOp7f1PlainEv(ptr nocapture noundef nonnull readonly align 8 dereferenceable(80) %this) local_unnamed_addr #3 align 2 {
entry:
  %n_.i = getelementptr inbounds nuw i8, ptr %this, i64 72
  %0 = load i64, ptr %n_.i, align 8, !tbaa !60
  %add.i = add i64 %0, 1
  %call.i = tail call noundef double @_ZNK8QuantLib18FdmSquareRootFwdOp1vEm(ptr noundef nonnull readonly align 8 dereferenceable(80) %this, i64 noundef %add.i)
  %call2.i = tail call noundef double @_ZNK8QuantLib18FdmSquareRootFwdOp1vEm(ptr noundef nonnull readonly align 8 dereferenceable(80) %this, i64 noundef %0)
  %sub.i = fsub double %call.i, %call2.i
  %sub = add i64 %0, -1
  %call.i12 = tail call noundef double @_ZNK8QuantLib18FdmSquareRootFwdOp1vEm(ptr noundef nonnull readonly align 8 dereferenceable(80) %this, i64 noundef %0)
  %call2.i13 = tail call noundef double @_ZNK8QuantLib18FdmSquareRootFwdOp1vEm(ptr noundef nonnull readonly align 8 dereferenceable(80) %this, i64 noundef %sub)
  %sub.i14 = fsub double %call.i12, %call2.i13
  %1 = tail call double @llvm.fmuladd.f64(double %sub.i, double 2.000000e+00, double %sub.i14)
  %call.i.i = tail call noundef double @_ZNK8QuantLib18FdmSquareRootFwdOp1vEm(ptr noundef nonnull readonly align 8 dereferenceable(80) %this, i64 noundef %add.i)
  %call2.i.i = tail call noundef double @_ZNK8QuantLib18FdmSquareRootFwdOp1vEm(ptr noundef nonnull readonly align 8 dereferenceable(80) %this, i64 noundef %0)
  %sub.i.i = fsub double %call.i.i, %call2.i.i
  %call.i4.i = tail call noundef double @_ZNK8QuantLib18FdmSquareRootFwdOp1vEm(ptr noundef nonnull readonly align 8 dereferenceable(80) %this, i64 noundef %0)
  %call2.i5.i = tail call noundef double @_ZNK8QuantLib18FdmSquareRootFwdOp1vEm(ptr noundef nonnull readonly align 8 dereferenceable(80) %this, i64 noundef %sub)
  %sub.i6.i = fsub double %call.i4.i, %call2.i5.i
  %call.i8.i = tail call noundef double @_ZNK8QuantLib18FdmSquareRootFwdOp1vEm(ptr noundef nonnull readonly align 8 dereferenceable(80) %this, i64 noundef %add.i)
  %call2.i9.i = tail call noundef double @_ZNK8QuantLib18FdmSquareRootFwdOp1vEm(ptr noundef nonnull readonly align 8 dereferenceable(80) %this, i64 noundef %0)
  %sub.i10.i = fsub double %call.i8.i, %call2.i9.i
  %add.i16 = fadd double %sub.i6.i, %sub.i10.i
  %mul.i = fmul double %sub.i.i, %add.i16
  %div = fdiv double %1, %mul.i
  %sigma_ = getelementptr inbounds nuw i8, ptr %this, i64 32
  %2 = load double, ptr %sigma_, align 8, !tbaa !26
  %mul = fmul double %2, %2
  %call6 = tail call noundef double @_ZNK8QuantLib18FdmSquareRootFwdOp1vEm(ptr noundef nonnull align 8 dereferenceable(80) %this, i64 noundef %0)
  %mul7 = fmul double %mul, %call6
  %call.i.i18 = tail call noundef double @_ZNK8QuantLib18FdmSquareRootFwdOp1vEm(ptr noundef nonnull readonly align 8 dereferenceable(80) %this, i64 noundef %add.i)
  %call2.i.i19 = tail call noundef double @_ZNK8QuantLib18FdmSquareRootFwdOp1vEm(ptr noundef nonnull readonly align 8 dereferenceable(80) %this, i64 noundef %0)
  %sub.i.i20 = fsub double %call.i.i18, %call2.i.i19
  %call.i4.i22 = tail call noundef double @_ZNK8QuantLib18FdmSquareRootFwdOp1vEm(ptr noundef nonnull readonly align 8 dereferenceable(80) %this, i64 noundef %0)
  %call2.i5.i23 = tail call noundef double @_ZNK8QuantLib18FdmSquareRootFwdOp1vEm(ptr noundef nonnull readonly align 8 dereferenceable(80) %this, i64 noundef %sub)
  %sub.i6.i24 = fsub double %call.i4.i22, %call2.i5.i23
  %call.i8.i25 = tail call noundef double @_ZNK8QuantLib18FdmSquareRootFwdOp1vEm(ptr noundef nonnull readonly align 8 dereferenceable(80) %this, i64 noundef %add.i)
  %call2.i9.i26 = tail call noundef double @_ZNK8QuantLib18FdmSquareRootFwdOp1vEm(ptr noundef nonnull readonly align 8 dereferenceable(80) %this, i64 noundef %0)
  %sub.i10.i27 = fsub double %call.i8.i25, %call2.i9.i26
  %add.i28 = fadd double %sub.i6.i24, %sub.i10.i27
  %mul.i29 = fmul double %sub.i.i20, %add.i28
  %div9 = fdiv double %mul7, %mul.i29
  %kappa_.i = getelementptr inbounds nuw i8, ptr %this, i64 16
  %3 = load double, ptr %kappa_.i, align 8, !tbaa !24
  %call.i30 = tail call noundef double @_ZNK8QuantLib18FdmSquareRootFwdOp1vEm(ptr noundef nonnull readonly align 8 dereferenceable(80) %this, i64 noundef %0)
  %theta_.i = getelementptr inbounds nuw i8, ptr %this, i64 24
  %4 = load double, ptr %theta_.i, align 8, !tbaa !25
  %sub.i31 = fsub double %call.i30, %4
  %5 = load double, ptr %sigma_, align 8, !tbaa !26
  %mul3.i = fmul double %5, %5
  %6 = tail call noundef double @llvm.fmuladd.f64(double %3, double %sub.i31, double %mul3.i)
  %call.i33 = tail call noundef double @_ZNK8QuantLib18FdmSquareRootFwdOp1vEm(ptr noundef nonnull readonly align 8 dereferenceable(80) %this, i64 noundef %0)
  %call2.i34 = tail call noundef double @_ZNK8QuantLib18FdmSquareRootFwdOp1vEm(ptr noundef nonnull readonly align 8 dereferenceable(80) %this, i64 noundef %sub)
  %sub.i35 = fsub double %call.i33, %call2.i34
  %mul13 = fmul double %6, %sub.i35
  %call.i.i37 = tail call noundef double @_ZNK8QuantLib18FdmSquareRootFwdOp1vEm(ptr noundef nonnull readonly align 8 dereferenceable(80) %this, i64 noundef %add.i)
  %call2.i.i38 = tail call noundef double @_ZNK8QuantLib18FdmSquareRootFwdOp1vEm(ptr noundef nonnull readonly align 8 dereferenceable(80) %this, i64 noundef %0)
  %sub.i.i39 = fsub double %call.i.i37, %call2.i.i38
  %call.i4.i41 = tail call noundef double @_ZNK8QuantLib18FdmSquareRootFwdOp1vEm(ptr noundef nonnull readonly align 8 dereferenceable(80) %this, i64 noundef %0)
  %call2.i5.i42 = tail call noundef double @_ZNK8QuantLib18FdmSquareRootFwdOp1vEm(ptr noundef nonnull readonly align 8 dereferenceable(80) %this, i64 noundef %sub)
  %sub.i6.i43 = fsub double %call.i4.i41, %call2.i5.i42
  %call.i8.i44 = tail call noundef double @_ZNK8QuantLib18FdmSquareRootFwdOp1vEm(ptr noundef nonnull readonly align 8 dereferenceable(80) %this, i64 noundef %add.i)
  %call2.i9.i45 = tail call noundef double @_ZNK8QuantLib18FdmSquareRootFwdOp1vEm(ptr noundef nonnull readonly align 8 dereferenceable(80) %this, i64 noundef %0)
  %sub.i10.i46 = fsub double %call.i8.i44, %call2.i9.i45
  %add.i47 = fadd double %sub.i6.i43, %sub.i10.i46
  %mul.i48 = fmul double %sub.i.i39, %add.i47
  %div15 = fdiv double %mul13, %mul.i48
  %add = fadd double %div9, %div15
  %call17 = tail call noundef double @_ZNK8QuantLib18FdmSquareRootFwdOp1vEm(ptr noundef nonnull align 8 dereferenceable(80) %this, i64 noundef %add.i)
  %7 = load double, ptr %kappa_.i, align 8, !tbaa !24
  %mul19 = fmul double %7, 2.000000e+00
  %call21 = tail call noundef double @_ZNK8QuantLib18FdmSquareRootFwdOp1vEm(ptr noundef nonnull align 8 dereferenceable(80) %this, i64 noundef %add.i)
  %8 = load double, ptr %theta_.i, align 8, !tbaa !25
  %sub22 = fsub double %call21, %8
  %9 = load double, ptr %sigma_, align 8, !tbaa !26
  %mul26 = fmul double %9, %9
  %10 = tail call double @llvm.fmuladd.f64(double %mul19, double %sub22, double %mul26)
  %div30 = fdiv double %10, %mul26
  %11 = tail call double @llvm.fmuladd.f64(double %div, double %call17, double %div30)
  %div31 = fdiv double %add, %11
  %call33 = tail call noundef double @_ZNK8QuantLib18FdmSquareRootFwdOp1vEm(ptr noundef nonnull align 8 dereferenceable(80) %this, i64 noundef %add.i)
  %mul34 = fmul double %call33, %div31
  ret double %mul34
}